; Function Attrs: nounwind sspstrong uwtable
define dso_local noundef i64 @rb_struct_aset(i64 noundef %0, i64 noundef %1, i64 noundef returned %2) #0 {
  %4 = alloca i64, align 8
  store i64 %1, ptr %4, align 8, !tbaa !7
  %5 = call fastcc i32 @rb_struct_pos(i64 noundef %0, ptr noundef %4)
  %6 = icmp slt i32 %5, 0
  br i1 %6, label %7, label %9

7:                                                ; preds = %3
  %8 = load i64, ptr %4, align 8, !tbaa !7
  call fastcc void @invalid_struct_pos(i64 noundef %0, i64 noundef %8) #22
  unreachable

9:                                                ; preds = %3
  %10 = icmp eq i64 %0, 0
  %11 = and i64 %0, 7
  %12 = icmp ne i64 %11, 0
  %13 = or i1 %10, %12
  br i1 %13, label %RB_OBJ_FROZEN.exit.thread.i.i, label %RB_FL_ABLE.exit.i.i.i, !prof !15

RB_FL_ABLE.exit.i.i.i:                            ; preds = %9
  %14 = inttoptr i64 %0 to ptr
  %15 = load i64, ptr %14, align 8, !tbaa !11
  %16 = and i64 %15, 31
  %.not.i.i.i = icmp eq i64 %16, 27
  %17 = and i64 %15, 2048
  %18 = icmp ne i64 %17, 0
  %or.cond.i.i = or i1 %.not.i.i.i, %18
  br i1 %or.cond.i.i, label %RB_OBJ_FROZEN.exit.thread.i.i, label %rbimpl_RB_TYPE_P_fastpath.exit.i.i, !prof !31

RB_OBJ_FROZEN.exit.thread.i.i:                    ; preds = %RB_FL_ABLE.exit.i.i.i, %9
  call void @rb_error_frozen_object(i64 noundef %0) #21
  unreachable

rbimpl_RB_TYPE_P_fastpath.exit.i.i:               ; preds = %RB_FL_ABLE.exit.i.i.i
  %19 = icmp ne i64 %16, 5
  %20 = and i64 %15, 49152
  %.not.i.i = icmp eq i64 %20, 0
  %or.cond8.i.i = or i1 %19, %.not.i.i
  br i1 %or.cond8.i.i, label %rb_struct_modify.exit, label %21, !prof !32

21:                                               ; preds = %rbimpl_RB_TYPE_P_fastpath.exit.i.i
  call void @rb_str_modify(i64 noundef %0) #19
  %.pre = load i64, ptr %14, align 8, !tbaa !11
  br label %rb_struct_modify.exit

rb_struct_modify.exit:                            ; preds = %rbimpl_RB_TYPE_P_fastpath.exit.i.i, %21
  %22 = phi i64 [ %15, %rbimpl_RB_TYPE_P_fastpath.exit.i.i ], [ %.pre, %21 ]
  %23 = zext nneg i32 %5 to i64
  %24 = and i64 %22, 1040384
  %.not.i.i8 = icmp eq i64 %24, 0
  br i1 %.not.i.i8, label %27, label %25

25:                                               ; preds = %rb_struct_modify.exit
  %26 = getelementptr inbounds nuw i8, ptr %14, i64 16
  br label %RSTRUCT_CONST_PTR.exit.i

27:                                               ; preds = %rb_struct_modify.exit
  %28 = getelementptr inbounds nuw i8, ptr %14, i64 24
  %29 = load ptr, ptr %28, align 8, !tbaa !13
  br label %RSTRUCT_CONST_PTR.exit.i

RSTRUCT_CONST_PTR.exit.i:                         ; preds = %27, %25
  %.0.i.i = phi ptr [ %26, %25 ], [ %29, %27 ]
  %30 = getelementptr i64, ptr %.0.i.i, i64 %23
  store i64 %2, ptr %30, align 8, !tbaa !7
  %31 = icmp eq i64 %2, 0
  %32 = and i64 %2, 7
  %33 = icmp ne i64 %32, 0
  %34 = or i1 %31, %33
  br i1 %34, label %internal_RSTRUCT_SET.exit, label %35

35:                                               ; preds = %RSTRUCT_CONST_PTR.exit.i
  call void @rb_gc_writebarrier(i64 noundef %0, i64 noundef %2) #19
  br label %internal_RSTRUCT_SET.exit

internal_RSTRUCT_SET.exit:                        ; preds = %RSTRUCT_CONST_PTR.exit.i, %35
  ret i64 %2
}